; Function Attrs: null_pointer_is_valid sspstrong uwtable
define hidden ptr @cba_pdev_find(ptr noundef %0, ptr noundef %1, ptr noundef %2) local_unnamed_addr #0 {
  %4 = tail call ptr @dcom_interface_find(ptr noundef %0, ptr noundef %1, ptr noundef %2)
  %.not = icmp eq ptr %4, null
  br i1 %.not, label %17, label %5

5:                                                ; preds = %3
  %6 = load ptr, ptr %4, align 8
  %7 = getelementptr inbounds nuw i8, ptr %6, i64 16
  %8 = load ptr, ptr %7, align 8
  %9 = icmp eq ptr %8, null
  br i1 %9, label %10, label %24

10:                                               ; preds = %5
  %11 = getelementptr inbounds nuw i8, ptr %0, i64 408
  %12 = load ptr, ptr %11, align 8
  %13 = tail call ptr @address_to_str(ptr noundef %12, ptr noundef %1)
  %14 = load ptr, ptr %11, align 8
  %15 = tail call ptr @guids_resolve_guid_to_str(ptr noundef %2, ptr noundef %14)
  %16 = tail call ptr (ptr, ptr, ptr, ptr, ...) @expert_add_info_format(ptr noundef %0, ptr noundef null, ptr noundef nonnull @ei_cba_acco_pdev_find, ptr noundef nonnull @.str.2, ptr noundef %13, ptr noundef %15)
  br label %24

17:                                               ; preds = %3
  %18 = getelementptr inbounds nuw i8, ptr %0, i64 408
  %19 = load ptr, ptr %18, align 8
  %20 = tail call ptr @address_to_str(ptr noundef %19, ptr noundef %1)
  %21 = load ptr, ptr %18, align 8
  %22 = tail call ptr @guids_resolve_guid_to_str(ptr noundef %2, ptr noundef %21)
  %23 = tail call ptr (ptr, ptr, ptr, ptr, ...) @expert_add_info_format(ptr noundef %0, ptr noundef null, ptr noundef nonnull @ei_cba_acco_pdev_find_unknown_interface, ptr noundef nonnull @.str.3, ptr noundef %20, ptr noundef %22)
  br label %24

24:                                               ; preds = %5, %10, %17
  %.0 = phi ptr [ null, %10 ], [ %8, %5 ], [ null, %17 ]
  ret ptr %.0
}